; Function Attrs: mustprogress uwtable
define void @_ZN6icu_777CaseMap11utf8ToLowerEPKcjNS_11StringPieceERNS_8ByteSinkEPNS_5EditsER10UErrorCode(ptr noundef %0, i32 noundef %1, ptr %2, i32 %3, ptr noundef nonnull align 8 dereferenceable(8) %4, ptr noundef %5, ptr noundef nonnull align 4 dereferenceable(4) %6) local_unnamed_addr #1 align 2 {
  %8 = alloca %struct.UCaseContext, align 8
  %9 = tail call i32 @ustrcase_getCaseLocale_77(ptr noundef %0)
  %10 = load i32, ptr %6, align 4, !tbaa !13
  %11 = icmp slt i32 %10, 1
  br i1 %11, label %12, label %_Z19ucasemap_mapUTF8_77ijPN6icu_7713BreakIteratorEPKciPFvijS1_PKhiRNS_8ByteSinkEPNS_5EditsER10UErrorCodeES7_S9_SB_.exit

12:                                               ; preds = %7
  %13 = icmp eq ptr %2, null
  %14 = icmp ne i32 %3, 0
  %or.cond.i = and i1 %13, %14
  %15 = icmp slt i32 %3, -1
  %or.cond3.i = or i1 %15, %or.cond.i
  br i1 %or.cond3.i, label %16, label %17

16:                                               ; preds = %12
  store i32 1, ptr %6, align 4, !tbaa !13
  br label %_Z19ucasemap_mapUTF8_77ijPN6icu_7713BreakIteratorEPKciPFvijS1_PKhiRNS_8ByteSinkEPNS_5EditsER10UErrorCodeES7_S9_SB_.exit

17:                                               ; preds = %12
  %18 = icmp eq i32 %3, -1
  br i1 %18, label %19, label %22

19:                                               ; preds = %17
  %20 = tail call i64 @strlen(ptr noundef nonnull dereferenceable(1) %2) #20
  %21 = trunc i64 %20 to i32
  br label %22

22:                                               ; preds = %19, %17
  %.0.i = phi i32 [ %21, %19 ], [ %3, %17 ]
  %23 = icmp ne ptr %5, null
  %24 = and i32 %1, 8192
  %25 = icmp eq i32 %24, 0
  %or.cond31.i = and i1 %25, %23
  br i1 %or.cond31.i, label %26, label %27

26:                                               ; preds = %22
  tail call void @_ZN6icu_775Edits5resetEv(ptr noundef nonnull align 8 dereferenceable(232) %5) #17
  br label %27

27:                                               ; preds = %26, %22
  call void @llvm.lifetime.start.p0(i64 32, ptr nonnull %8) #17
  %28 = getelementptr inbounds nuw i8, ptr %8, i64 8
  call void @llvm.memset.p0.i64(ptr noundef nonnull align 8 dereferenceable(24) %28, i8 0, i64 24, i1 false)
  store ptr %2, ptr %8, align 8, !tbaa !23
  %29 = getelementptr inbounds nuw i8, ptr %8, i64 16
  store i32 %.0.i, ptr %29, align 8, !tbaa !25
  call fastcc void @_ZN12_GLOBAL__N_17toLowerEijPKhP12UCaseContextiiRN6icu_778ByteSinkEPNS4_5EditsER10UErrorCode(i32 noundef %9, i32 noundef %1, ptr noundef %2, ptr noundef nonnull %8, i32 noundef 0, i32 noundef %.0.i, ptr noundef nonnull align 8 dereferenceable(8) %4, ptr noundef %5, ptr noundef nonnull align 4 dereferenceable(4) %6)
  call void @llvm.lifetime.end.p0(i64 32, ptr nonnull %8) #17
  %30 = load ptr, ptr %4, align 8, !tbaa !21
  %31 = getelementptr inbounds nuw i8, ptr %30, i64 32
  %32 = load ptr, ptr %31, align 8
  call void %32(ptr noundef nonnull align 8 dereferenceable(8) %4)
  %33 = load i32, ptr %6, align 4, !tbaa !13
  %34 = icmp slt i32 %33, 1
  %or.cond5.i = and i1 %23, %34
  br i1 %or.cond5.i, label %35, label %_Z19ucasemap_mapUTF8_77ijPN6icu_7713BreakIteratorEPKciPFvijS1_PKhiRNS_8ByteSinkEPNS_5EditsER10UErrorCodeES7_S9_SB_.exit

35:                                               ; preds = %27
  %36 = call noundef signext i8 @_ZNK6icu_775Edits11copyErrorToER10UErrorCode(ptr noundef nonnull align 8 dereferenceable(232) %5, ptr noundef nonnull align 4 dereferenceable(4) %6)
  br label %_Z19ucasemap_mapUTF8_77ijPN6icu_7713BreakIteratorEPKciPFvijS1_PKhiRNS_8ByteSinkEPNS_5EditsER10UErrorCodeES7_S9_SB_.exit

_Z19ucasemap_mapUTF8_77ijPN6icu_7713BreakIteratorEPKciPFvijS1_PKhiRNS_8ByteSinkEPNS_5EditsER10UErrorCodeES7_S9_SB_.exit: ; preds = %7, %16, %27, %35
  ret void
}